target datalayout = "e-m:e-p270:32:32-p271:32:32-p272:64:64-i64:64-i128:128-f80:128-n8:16:32:64-S128"
target triple = "x86_64-pc-linux-gnu"

%"class.llvm::SmallVectorBase" = type { ptr, i32, i32 }
%"class.llvm::Value" = type { i8, i8, i16, i32, ptr, ptr }
%"struct.llvm::reassociate::ValueEntry" = type { i32, ptr }

; Function Attrs: mustprogress nounwind uwtable
define linkonce_odr hidden noundef i32 @_ZNK4llvm5Value10getValueIDEv(ptr noundef nonnull align 8 dereferenceable(24) %0) #1 comdat align 2 {
  %2 = alloca ptr, align 8
  store ptr %0, ptr %2, align 8
  %3 = load ptr, ptr %2, align 8
  %4 = getelementptr inbounds nuw %"class.llvm::Value", ptr %3, i32 0, i32 0
  %5 = load i8, ptr %4, align 8
  %6 = zext i8 %5 to i32
  ret i32 %6
}

; Function Attrs: mustprogress nounwind uwtable
define linkonce_odr hidden noundef zeroext i1 @_ZN4llvm8isa_implINS_11InstructionENS_5ValueEvE4doitERKS2_(ptr noundef nonnull align 8 dereferenceable(24) %0) #1 comdat align 2 {
  %2 = alloca ptr, align 8
  store ptr %0, ptr %2, align 8
  %3 = load ptr, ptr %2, align 8
  %4 = call noundef i32 @_ZNK4llvm5Value10getValueIDEv(ptr noundef nonnull align 8 dereferenceable(24) %3)
  %5 = icmp uge i32 %4, 29
  ret i1 %5
}

; Function Attrs: mustprogress nounwind uwtable
define linkonce_odr hidden noundef zeroext i1 @_ZN4llvm11isa_impl_clINS_11InstructionEPKNS_5ValueEE4doitES4_(ptr noundef %0) #1 comdat align 2 {
  %2 = alloca ptr, align 8
  store ptr %0, ptr %2, align 8
  %3 = load ptr, ptr %2, align 8
  %4 = call noundef zeroext i1 @_ZN4llvm8isa_implINS_11InstructionENS_5ValueEvE4doitERKS2_(ptr noundef nonnull align 8 dereferenceable(24) %3)
  ret i1 %4
}

; Function Attrs: mustprogress nounwind uwtable
define linkonce_odr hidden noundef nonnull align 8 dereferenceable(8) ptr @_ZN4llvm13simplify_typeIPNS_5ValueEE18getSimplifiedValueERS2_(ptr noundef nonnull align 8 dereferenceable(8) %0) #1 comdat align 2 {
  %2 = alloca ptr, align 8
  store ptr %0, ptr %2, align 8
  %3 = load ptr, ptr %2, align 8
  ret ptr %3
}

; Function Attrs: mustprogress nounwind uwtable
define linkonce_odr hidden noundef zeroext i1 @_ZN4llvm13isa_impl_wrapINS_11InstructionEPKNS_5ValueES4_E4doitERKS4_(ptr noundef nonnull align 8 dereferenceable(8) %0) #1 comdat align 2 {
  %2 = alloca ptr, align 8
  store ptr %0, ptr %2, align 8
  %3 = load ptr, ptr %2, align 8
  %4 = load ptr, ptr %3, align 8
  %5 = call noundef zeroext i1 @_ZN4llvm11isa_impl_clINS_11InstructionEPKNS_5ValueEE4doitES4_(ptr noundef %4)
  ret i1 %5
}

; Function Attrs: mustprogress nounwind uwtable
define linkonce_odr hidden noundef ptr @_ZN4llvm13simplify_typeIKPNS_5ValueEE18getSimplifiedValueERS3_(ptr noundef nonnull align 8 dereferenceable(8) %0) #1 comdat align 2 {
  %2 = alloca ptr, align 8
  store ptr %0, ptr %2, align 8
  %3 = load ptr, ptr %2, align 8
  %4 = call noundef nonnull align 8 dereferenceable(8) ptr @_ZN4llvm13simplify_typeIPNS_5ValueEE18getSimplifiedValueERS2_(ptr noundef nonnull align 8 dereferenceable(8) %3)
  %5 = load ptr, ptr %4, align 8
  ret ptr %5
}

; Function Attrs: mustprogress nounwind uwtable
define linkonce_odr hidden noundef ptr @_ZN4llvm16cast_convert_valINS_11InstructionEPNS_5ValueES3_E4doitEPKS2_(ptr noundef %0) #1 comdat align 2 {
  %2 = alloca ptr, align 8
  store ptr %0, ptr %2, align 8
  %3 = load ptr, ptr %2, align 8
  ret ptr %3
}

; Function Attrs: mustprogress nounwind uwtable
define linkonce_odr hidden noundef zeroext i1 @_ZN4llvm13isa_impl_wrapINS_11InstructionEKPNS_5ValueEPKS2_E4doitERS4_(ptr noundef nonnull align 8 dereferenceable(8) %0) #1 comdat align 2 {
  %2 = alloca ptr, align 8
  %3 = alloca ptr, align 8
  store ptr %0, ptr %2, align 8
  %4 = load ptr, ptr %2, align 8
  %5 = call noundef ptr @_ZN4llvm13simplify_typeIKPNS_5ValueEE18getSimplifiedValueERS3_(ptr noundef nonnull align 8 dereferenceable(8) %4)
  store ptr %5, ptr %3, align 8
  %6 = call noundef zeroext i1 @_ZN4llvm13isa_impl_wrapINS_11InstructionEPKNS_5ValueES4_E4doitERKS4_(ptr noundef nonnull align 8 dereferenceable(8) %3)
  ret i1 %6
}

; Function Attrs: mustprogress nounwind uwtable
define linkonce_odr hidden noundef ptr @_ZN4llvm8CastInfoINS_11InstructionEPNS_5ValueEvE6doCastERKS3_(ptr noundef nonnull align 8 dereferenceable(8) %0) #1 comdat align 2 {
  %2 = alloca ptr, align 8
  store ptr %0, ptr %2, align 8
  %3 = load ptr, ptr %2, align 8
  %4 = load ptr, ptr %3, align 8
  %5 = call noundef ptr @_ZN4llvm16cast_convert_valINS_11InstructionEPNS_5ValueES3_E4doitEPKS2_(ptr noundef %4)
  ret ptr %5
}

; Function Attrs: mustprogress nounwind uwtable
define linkonce_odr hidden noundef ptr @_ZN4llvm8CastInfoINS_11InstructionEPNS_5ValueEvE10castFailedEv() #1 comdat align 2 {
  ret ptr null
}

; Function Attrs: mustprogress nounwind uwtable
define linkonce_odr hidden noundef zeroext i1 @_ZN4llvm14CastIsPossibleINS_11InstructionEPNS_5ValueEvE10isPossibleERKS3_(ptr noundef nonnull align 8 dereferenceable(8) %0) #1 comdat align 2 {
  %2 = alloca ptr, align 8
  store ptr %0, ptr %2, align 8
  %3 = load ptr, ptr %2, align 8
  %4 = call noundef zeroext i1 @_ZN4llvm13isa_impl_wrapINS_11InstructionEKPNS_5ValueEPKS2_E4doitERS4_(ptr noundef nonnull align 8 dereferenceable(8) %3)
  ret i1 %4
}

; Function Attrs: mustprogress nounwind uwtable
define linkonce_odr hidden noundef ptr @_ZN4llvm8CastInfoINS_11InstructionEPNS_5ValueEvE16doCastIfPossibleERKS3_(ptr noundef nonnull align 8 dereferenceable(8) %0) #1 comdat align 2 {
  %2 = alloca ptr, align 8
  %3 = alloca ptr, align 8
  store ptr %0, ptr %3, align 8
  %4 = load ptr, ptr %3, align 8
  %5 = call noundef zeroext i1 @_ZN4llvm14CastIsPossibleINS_11InstructionEPNS_5ValueEvE10isPossibleERKS3_(ptr noundef nonnull align 8 dereferenceable(8) %4)
  br i1 %5, label %8, label %6

6:                                                ; preds = %1
  %7 = call noundef ptr @_ZN4llvm8CastInfoINS_11InstructionEPNS_5ValueEvE10castFailedEv()
  store ptr %7, ptr %2, align 8
  br label %11

8:                                                ; preds = %1
  %9 = load ptr, ptr %3, align 8
  %10 = call noundef ptr @_ZN4llvm8CastInfoINS_11InstructionEPNS_5ValueEvE6doCastERKS3_(ptr noundef nonnull align 8 dereferenceable(8) %9)
  store ptr %10, ptr %2, align 8
  br label %11

11:                                               ; preds = %8, %6
  %12 = load ptr, ptr %2, align 8
  ret ptr %12
}

; Function Attrs: mustprogress nounwind uwtable
define linkonce_odr hidden noundef ptr @_ZNK4llvm25SmallVectorTemplateCommonINS_11reassociate10ValueEntryEvE5beginEv(ptr noundef nonnull align 8 dereferenceable(16) %0) #1 comdat align 2 {
  %2 = alloca ptr, align 8
  store ptr %0, ptr %2, align 8
  %3 = load ptr, ptr %2, align 8
  %4 = getelementptr inbounds nuw %"class.llvm::SmallVectorBase", ptr %3, i32 0, i32 0
  %5 = load ptr, ptr %4, align 8
  ret ptr %5
}

; Function Attrs: mustprogress nounwind uwtable
define linkonce_odr hidden noundef ptr @_ZN4llvm8dyn_castINS_11InstructionENS_5ValueEEEDcPT0_(ptr noundef %0) #1 comdat {
  %2 = alloca ptr, align 8
  store ptr %0, ptr %2, align 8
  %3 = call noundef ptr @_ZN4llvm8CastInfoINS_11InstructionEPNS_5ValueEvE16doCastIfPossibleERKS3_(ptr noundef nonnull align 8 dereferenceable(8) %2)
  ret ptr %3
}

; Function Attrs: mustprogress nounwind uwtable
define linkonce_odr hidden noundef nonnull align 8 dereferenceable(16) ptr @_ZNK4llvm25SmallVectorTemplateCommonINS_11reassociate10ValueEntryEvEixEm(ptr noundef nonnull align 8 dereferenceable(16) %0, i64 noundef %1) #1 comdat align 2 {
  %3 = alloca ptr, align 8
  %4 = alloca i64, align 8
  store ptr %0, ptr %3, align 8
  store i64 %1, ptr %4, align 8
  %5 = load ptr, ptr %3, align 8
  %6 = call noundef ptr @_ZNK4llvm25SmallVectorTemplateCommonINS_11reassociate10ValueEntryEvE5beginEv(ptr noundef nonnull align 8 dereferenceable(16) %5)
  %7 = load i64, ptr %4, align 8
  %8 = getelementptr inbounds %"struct.llvm::reassociate::ValueEntry", ptr %6, i64 %7
  ret ptr %8
}

; Function Attrs: mustprogress nounwind uwtable
define internal noundef i32 @_ZL17FindInOperandListRKN4llvm15SmallVectorImplINS_11reassociate10ValueEntryEEEjPNS_5ValueE(ptr noundef nonnull align 8 dereferenceable(16) %0, i32 noundef %1, ptr noundef %2) #1 {
  %4 = alloca i32, align 4
  %5 = alloca ptr, align 8
  %6 = alloca i32, align 4
  %7 = alloca ptr, align 8
  %8 = alloca i32, align 4
  %9 = alloca i32, align 4
  %10 = alloca i32, align 4
  %11 = alloca ptr, align 8
  %12 = alloca ptr, align 8
  %13 = alloca i32, align 4
  %14 = alloca ptr, align 8
  %15 = alloca ptr, align 8
  store ptr %0, ptr %5, align 8
  store i32 %1, ptr %6, align 4
  store ptr %2, ptr %7, align 8
  %16 = load ptr, ptr %5, align 8
  %17 = load i32, ptr %6, align 4
  %18 = zext i32 %17 to i64
  %19 = call noundef nonnull align 8 dereferenceable(16) ptr @_ZNK4llvm25SmallVectorTemplateCommonINS_11reassociate10ValueEntryEvEixEm(ptr noundef nonnull align 8 dereferenceable(16) %16, i64 noundef %18)
  %20 = getelementptr inbounds nuw %"struct.llvm::reassociate::ValueEntry", ptr %19, i32 0, i32 0
  %21 = load i32, ptr %20, align 8
  store i32 %21, ptr %8, align 4
  %22 = load ptr, ptr %5, align 8
  %23 = call noundef i64 @_ZNK4llvm15SmallVectorBaseIjE4sizeEv(ptr noundef nonnull align 8 dereferenceable(16) %22)
  %24 = trunc i64 %23 to i32
  store i32 %24, ptr %9, align 4
  %25 = load i32, ptr %6, align 4
  %26 = add i32 %25, 1
  store i32 %26, ptr %10, align 4
  br label %27

27:                                               ; preds = %77, %3
  %28 = load i32, ptr %10, align 4
  %29 = load i32, ptr %9, align 4
  %30 = icmp ne i32 %28, %29
  br i1 %30, label %31, label %40

31:                                               ; preds = %27
  %32 = load ptr, ptr %5, align 8
  %33 = load i32, ptr %10, align 4
  %34 = zext i32 %33 to i64
  %35 = call noundef nonnull align 8 dereferenceable(16) ptr @_ZNK4llvm25SmallVectorTemplateCommonINS_11reassociate10ValueEntryEvEixEm(ptr noundef nonnull align 8 dereferenceable(16) %32, i64 noundef %34)
  %36 = getelementptr inbounds nuw %"struct.llvm::reassociate::ValueEntry", ptr %35, i32 0, i32 0
  %37 = load i32, ptr %36, align 8
  %38 = load i32, ptr %8, align 4
  %39 = icmp eq i32 %37, %38
  br label %40

40:                                               ; preds = %31, %27
  %41 = phi i1 [ false, %27 ], [ %39, %31 ]
  br i1 %41, label %42, label %80

42:                                               ; preds = %40
  %43 = load ptr, ptr %5, align 8
  %44 = load i32, ptr %10, align 4
  %45 = zext i32 %44 to i64
  %46 = call noundef nonnull align 8 dereferenceable(16) ptr @_ZNK4llvm25SmallVectorTemplateCommonINS_11reassociate10ValueEntryEvEixEm(ptr noundef nonnull align 8 dereferenceable(16) %43, i64 noundef %45)
  %47 = getelementptr inbounds nuw %"struct.llvm::reassociate::ValueEntry", ptr %46, i32 0, i32 1
  %48 = load ptr, ptr %47, align 8
  %49 = load ptr, ptr %7, align 8
  %50 = icmp eq ptr %48, %49
  br i1 %50, label %51, label %53

51:                                               ; preds = %42
  %52 = load i32, ptr %10, align 4
  store i32 %52, ptr %4, align 4
  br label %137

53:                                               ; preds = %42
  %54 = load ptr, ptr %5, align 8
  %55 = load i32, ptr %10, align 4
  %56 = zext i32 %55 to i64
  %57 = call noundef nonnull align 8 dereferenceable(16) ptr @_ZNK4llvm25SmallVectorTemplateCommonINS_11reassociate10ValueEntryEvEixEm(ptr noundef nonnull align 8 dereferenceable(16) %54, i64 noundef %56)
  %58 = getelementptr inbounds nuw %"struct.llvm::reassociate::ValueEntry", ptr %57, i32 0, i32 1
  %59 = load ptr, ptr %58, align 8
  %60 = call noundef ptr @_ZN4llvm8dyn_castINS_11InstructionENS_5ValueEEEDcPT0_(ptr noundef %59)
  store ptr %60, ptr %11, align 8
  %61 = load ptr, ptr %11, align 8
  %62 = icmp ne ptr %61, null
  br i1 %62, label %63, label %76

63:                                               ; preds = %53
  %64 = load ptr, ptr %7, align 8
  %65 = call noundef ptr @_ZN4llvm8dyn_castINS_11InstructionENS_5ValueEEEDcPT0_(ptr noundef %64)
  store ptr %65, ptr %12, align 8
  %66 = load ptr, ptr %12, align 8
  %67 = icmp ne ptr %66, null
  br i1 %67, label %68, label %75

68:                                               ; preds = %63
  %69 = load ptr, ptr %11, align 8
  %70 = load ptr, ptr %12, align 8
  %71 = call noundef zeroext i1 @_ZNK4llvm11Instruction13isIdenticalToEPKS0_(ptr noundef nonnull align 8 dereferenceable(72) %69, ptr noundef %70) #16
  br i1 %71, label %72, label %74

72:                                               ; preds = %68
  %73 = load i32, ptr %10, align 4
  store i32 %73, ptr %4, align 4
  br label %137

74:                                               ; preds = %68
  br label %75

75:                                               ; preds = %74, %63
  br label %76

76:                                               ; preds = %75, %53
  br label %77

77:                                               ; preds = %76
  %78 = load i32, ptr %10, align 4
  %79 = add i32 %78, 1
  store i32 %79, ptr %10, align 4
  br label %27, !llvm.loop !20

80:                                               ; preds = %40
  %81 = load i32, ptr %6, align 4
  %82 = sub i32 %81, 1
  store i32 %82, ptr %13, align 4
  br label %83

83:                                               ; preds = %132, %80
  %84 = load i32, ptr %13, align 4
  %85 = icmp ne i32 %84, -1
  br i1 %85, label %86, label %95

86:                                               ; preds = %83
  %87 = load ptr, ptr %5, align 8
  %88 = load i32, ptr %13, align 4
  %89 = zext i32 %88 to i64
  %90 = call noundef nonnull align 8 dereferenceable(16) ptr @_ZNK4llvm25SmallVectorTemplateCommonINS_11reassociate10ValueEntryEvEixEm(ptr noundef nonnull align 8 dereferenceable(16) %87, i64 noundef %89)
  %91 = getelementptr inbounds nuw %"struct.llvm::reassociate::ValueEntry", ptr %90, i32 0, i32 0
  %92 = load i32, ptr %91, align 8
  %93 = load i32, ptr %8, align 4
  %94 = icmp eq i32 %92, %93
  br label %95

95:                                               ; preds = %86, %83
  %96 = phi i1 [ false, %83 ], [ %94, %86 ]
  br i1 %96, label %97, label %135

97:                                               ; preds = %95
  %98 = load ptr, ptr %5, align 8
  %99 = load i32, ptr %13, align 4
  %100 = zext i32 %99 to i64
  %101 = call noundef nonnull align 8 dereferenceable(16) ptr @_ZNK4llvm25SmallVectorTemplateCommonINS_11reassociate10ValueEntryEvEixEm(ptr noundef nonnull align 8 dereferenceable(16) %98, i64 noundef %100)
  %102 = getelementptr inbounds nuw %"struct.llvm::reassociate::ValueEntry", ptr %101, i32 0, i32 1
  %103 = load ptr, ptr %102, align 8
  %104 = load ptr, ptr %7, align 8
  %105 = icmp eq ptr %103, %104
  br i1 %105, label %106, label %108

106:                                              ; preds = %97
  %107 = load i32, ptr %13, align 4
  store i32 %107, ptr %4, align 4
  br label %137

108:                                              ; preds = %97
  %109 = load ptr, ptr %5, align 8
  %110 = load i32, ptr %13, align 4
  %111 = zext i32 %110 to i64
  %112 = call noundef nonnull align 8 dereferenceable(16) ptr @_ZNK4llvm25SmallVectorTemplateCommonINS_11reassociate10ValueEntryEvEixEm(ptr noundef nonnull align 8 dereferenceable(16) %109, i64 noundef %111)
  %113 = getelementptr inbounds nuw %"struct.llvm::reassociate::ValueEntry", ptr %112, i32 0, i32 1
  %114 = load ptr, ptr %113, align 8
  %115 = call noundef ptr @_ZN4llvm8dyn_castINS_11InstructionENS_5ValueEEEDcPT0_(ptr noundef %114)
  store ptr %115, ptr %14, align 8
  %116 = load ptr, ptr %14, align 8
  %117 = icmp ne ptr %116, null
  br i1 %117, label %118, label %131

118:                                              ; preds = %108
  %119 = load ptr, ptr %7, align 8
  %120 = call noundef ptr @_ZN4llvm8dyn_castINS_11InstructionENS_5ValueEEEDcPT0_(ptr noundef %119)
  store ptr %120, ptr %15, align 8
  %121 = load ptr, ptr %15, align 8
  %122 = icmp ne ptr %121, null
  br i1 %122, label %123, label %130

123:                                              ; preds = %118
  %124 = load ptr, ptr %14, align 8
  %125 = load ptr, ptr %15, align 8
  %126 = call noundef zeroext i1 @_ZNK4llvm11Instruction13isIdenticalToEPKS0_(ptr noundef nonnull align 8 dereferenceable(72) %124, ptr noundef %125) #16
  br i1 %126, label %127, label %129

127:                                              ; preds = %123
  %128 = load i32, ptr %13, align 4
  store i32 %128, ptr %4, align 4
  br label %137

129:                                              ; preds = %123
  br label %130

130:                                              ; preds = %129, %118
  br label %131

131:                                              ; preds = %130, %108
  br label %132

132:                                              ; preds = %131
  %133 = load i32, ptr %13, align 4
  %134 = add i32 %133, -1
  store i32 %134, ptr %13, align 4
  br label %83, !llvm.loop !21

135:                                              ; preds = %95
  %136 = load i32, ptr %6, align 4
  store i32 %136, ptr %4, align 4
  br label %137

137:                                              ; preds = %135, %127, %106, %72, %51
  %138 = load i32, ptr %4, align 4
  ret i32 %138
}