; Function Attrs: mustprogress nounwind uwtable
define internal fastcc noundef i32 @_ZL17FindInOperandListRKN4llvm15SmallVectorImplINS_11reassociate10ValueEntryEEEjPNS_5ValueE(ptr noundef nonnull align 8 dereferenceable(16) %0, i32 noundef %1, ptr noundef %2) unnamed_addr #0 {
  %4 = zext i32 %1 to i64
  %5 = load ptr, ptr %0, align 8
  %6 = getelementptr inbounds nuw %"struct.llvm::reassociate::ValueEntry", ptr %5, i64 %4
  %7 = load i32, ptr %6, align 8
  %8 = tail call noundef i64 @_ZNK4llvm15SmallVectorBaseIjE4sizeEv(ptr noundef nonnull align 8 dereferenceable(16) %0) #23
  %9 = trunc i64 %8 to i32
  %.04364 = add i32 %1, 1
  %.not65 = icmp eq i32 %.04364, %9
  br i1 %.not65, label %.critedge, label %.lr.ph

.lr.ph:                                           ; preds = %3
  %10 = load ptr, ptr %0, align 8
  br label %11

11:                                               ; preds = %.lr.ph, %28
  %.04366 = phi i32 [ %.04364, %.lr.ph ], [ %.043, %28 ]
  %12 = zext i32 %.04366 to i64
  %13 = getelementptr inbounds nuw %"struct.llvm::reassociate::ValueEntry", ptr %10, i64 %12
  %14 = load i32, ptr %13, align 8
  %15 = icmp eq i32 %14, %7
  br i1 %15, label %16, label %.critedge

16:                                               ; preds = %11
  %17 = getelementptr inbounds nuw i8, ptr %13, i64 8
  %18 = load ptr, ptr %17, align 8
  %19 = icmp eq ptr %18, %2
  br i1 %19, label %.critedge2, label %20

20:                                               ; preds = %16
  %21 = load i8, ptr %18, align 8
  %22 = icmp ult i8 %21, 29
  br i1 %22, label %28, label %23

23:                                               ; preds = %20
  %24 = load i8, ptr %2, align 8
  %25 = icmp ult i8 %24, 29
  br i1 %25, label %28, label %26

26:                                               ; preds = %23
  %27 = tail call noundef zeroext i1 @_ZNK4llvm11Instruction13isIdenticalToEPKS0_(ptr noundef nonnull align 8 dereferenceable(72) %18, ptr noundef nonnull %2) #24
  br i1 %27, label %.critedge2, label %28

28:                                               ; preds = %20, %26, %23
  %.043 = add i32 %.04366, 1
  %.not = icmp eq i32 %.043, %9
  br i1 %.not, label %.critedge, label %11, !llvm.loop !138

.critedge:                                        ; preds = %11, %28, %3
  %.not5069 = icmp eq i32 %1, 0
  br i1 %.not5069, label %.critedge2, label %.lr.ph71

.lr.ph71:                                         ; preds = %.critedge
  %29 = load ptr, ptr %0, align 8
  br label %30

30:                                               ; preds = %.lr.ph71, %47
  %indvars.iv = phi i64 [ %4, %.lr.ph71 ], [ %indvars.iv.next, %47 ]
  %indvars.iv.next = add nsw i64 %indvars.iv, -1
  %indvars = trunc i64 %indvars.iv.next to i32
  %31 = and i64 %indvars.iv.next, 4294967295
  %32 = getelementptr inbounds nuw %"struct.llvm::reassociate::ValueEntry", ptr %29, i64 %31
  %33 = load i32, ptr %32, align 8
  %34 = icmp eq i32 %33, %7
  br i1 %34, label %35, label %.critedge2

35:                                               ; preds = %30
  %36 = getelementptr inbounds nuw i8, ptr %32, i64 8
  %37 = load ptr, ptr %36, align 8
  %38 = icmp eq ptr %37, %2
  br i1 %38, label %.critedge2, label %39

39:                                               ; preds = %35
  %40 = load i8, ptr %37, align 8
  %41 = icmp ult i8 %40, 29
  br i1 %41, label %47, label %42

42:                                               ; preds = %39
  %43 = load i8, ptr %2, align 8
  %44 = icmp ult i8 %43, 29
  br i1 %44, label %47, label %45

45:                                               ; preds = %42
  %46 = tail call noundef zeroext i1 @_ZNK4llvm11Instruction13isIdenticalToEPKS0_(ptr noundef nonnull align 8 dereferenceable(72) %37, ptr noundef nonnull %2) #24
  br i1 %46, label %.critedge2, label %47

47:                                               ; preds = %39, %45, %42
  %.not50 = icmp eq i32 %indvars, 0
  br i1 %.not50, label %.critedge2, label %30, !llvm.loop !139

.critedge2:                                       ; preds = %26, %16, %35, %45, %47, %30, %.critedge
  %.0 = phi i32 [ 0, %.critedge ], [ %indvars, %35 ], [ %indvars, %45 ], [ %1, %47 ], [ %1, %30 ], [ %.04366, %16 ], [ %.04366, %26 ]
  ret i32 %.0
}